; Function Attrs: mustprogress nofree nounwind willreturn uwtable
define internal fastcc noalias noundef ptr @Vec_IntDup(ptr noundef readonly captures(none) %0) unnamed_addr #15 {
  %2 = tail call noalias dereferenceable_or_null(16) ptr @malloc(i64 noundef 16) #29
  %3 = getelementptr inbounds nuw i8, ptr %0, i64 4
  %4 = load i32, ptr %3, align 4
  %5 = getelementptr inbounds nuw i8, ptr %2, i64 4
  store i32 %4, ptr %5, align 4
  store i32 %4, ptr %2, align 8
  %.not = icmp eq i32 %4, 0
  br i1 %.not, label %._crit_edge, label %6

6:                                                ; preds = %1
  %7 = sext i32 %4 to i64
  %8 = shl nsw i64 %7, 2
  %9 = tail call noalias ptr @malloc(i64 noundef %8) #29
  br label %._crit_edge

._crit_edge:                                      ; preds = %1, %6
  %.pre-phi12 = phi i64 [ %8, %6 ], [ 0, %1 ]
  %10 = phi ptr [ %9, %6 ], [ null, %1 ]
  %11 = getelementptr inbounds nuw i8, ptr %2, i64 8
  store ptr %10, ptr %11, align 8
  %12 = getelementptr inbounds nuw i8, ptr %0, i64 8
  %13 = load ptr, ptr %12, align 8
  tail call void @llvm.memcpy.p0.p0.i64(ptr align 4 %10, ptr align 4 %13, i64 %.pre-phi12, i1 false)
  ret ptr %2
}